target datalayout = "e-m:e-p270:32:32-p271:32:32-p272:64:64-i64:64-i128:128-f80:128-n8:16:32:64-S128"
target triple = "x86_64-pc-linux-gnu"

%struct.H5O_msg_class_t = type { i32, ptr, i64, i32, ptr, ptr, ptr, ptr, ptr, ptr, ptr, ptr, ptr, ptr, ptr, ptr, ptr, ptr, ptr, ptr }
%struct.H5O_t = type { %struct.H5C_cache_entry_t, i64, i64, i8, i64, i8, i32, i8, i8, i64, i64, i64, i64, i32, i32, i64, i64, ptr, i64, i64, i64, i64, ptr, i8, ptr }
%struct.H5C_cache_entry_t = type { ptr, i64, i64, ptr, i8, ptr, i8, i8, i8, i8, i32, i8, i8, i8, i8, i8, i32, ptr, i32, i32, i32, i32, i32, i8, i8, ptr, ptr, ptr, ptr, ptr, ptr, i8, i32, i8, i64, ptr, i64, i64, i32, i8, i32, i32, i8, ptr, ptr, ptr }
%struct.H5O_mesg_t = type { ptr, i8, i8, i32, i32, ptr, ptr, i64 }

@H5O_init_g = external global i8, align 1
@H5_libterm_g = external global i8, align 1
@.str = private unnamed_addr constant [101 x i8] c"generated/home/dtcxzyw/WorkSpace/Projects/compilers/llvm-opt-benchmark/bench/hdf5/hdf5/src/H5Otest.c\00", align 1
@H5E_SYM_g = external global i64, align 8
@H5E_NOTFOUND_g = external global i64, align 8
@.str.1 = private unnamed_addr constant [17 x i8] c"object not found\00", align 1
@H5E_OHDR_g = external global i64, align 8
@H5E_CANTPROTECT_g = external global i64, align 8
@.str.3 = private unnamed_addr constant [29 x i8] c"unable to load object header\00", align 1
@H5E_CANTUNPROTECT_g = external global i64, align 8
@.str.5 = private unnamed_addr constant [32 x i8] c"unable to release object header\00", align 1
@__func__.H5O__check_msg_marked_test = private unnamed_addr constant [27 x i8] c"H5O__check_msg_marked_test\00", align 1
@H5E_BADVALUE_g = external global i64, align 8
@.str.13 = private unnamed_addr constant [57 x i8] c"'unknown' message has incorrect 'was unknown' flag value\00", align 1
@.str.14 = private unnamed_addr constant [33 x i8] c"'unknown' message type not found\00", align 1

; Function Attrs: nounwind uwtable
define i32 @H5O__check_msg_marked_test(i64 noundef %0, i1 noundef zeroext %1) #0 {
  %3 = alloca i64, align 8
  %4 = alloca i8, align 1
  %5 = alloca ptr, align 8
  %6 = alloca ptr, align 8
  %7 = alloca ptr, align 8
  %8 = alloca i32, align 4
  %9 = alloca i32, align 4
  %10 = alloca i8, align 1
  store i64 %0, ptr %3, align 8, !tbaa !3
  %11 = zext i1 %1 to i8
  store i8 %11, ptr %4, align 1, !tbaa !10
  call void @llvm.lifetime.start.p0(i64 8, ptr %5) #5
  store ptr null, ptr %5, align 8, !tbaa !7
  call void @llvm.lifetime.start.p0(i64 8, ptr %6) #5
  call void @llvm.lifetime.start.p0(i64 8, ptr %7) #5
  call void @llvm.lifetime.start.p0(i64 4, ptr %8) #5
  call void @llvm.lifetime.start.p0(i64 4, ptr %9) #5
  store i32 0, ptr %9, align 4, !tbaa !12
  call void @llvm.lifetime.start.p0(i64 1, ptr %10) #5
  store i8 0, ptr %10, align 1, !tbaa !10
  %12 = load i8, ptr @H5O_init_g, align 1, !tbaa !10, !range !14, !noundef !15
  %13 = trunc i8 %12 to i1
  br i1 %13, label %18, label %14

14:                                               ; preds = %2
  %15 = load i8, ptr @H5_libterm_g, align 1, !tbaa !10, !range !14, !noundef !15
  %16 = trunc i8 %15 to i1
  %17 = xor i1 %16, true
  br label %18

18:                                               ; preds = %14, %2
  %19 = phi i1 [ true, %2 ], [ %17, %14 ]
  %20 = xor i1 %19, true
  %21 = xor i1 %20, true
  %22 = zext i1 %21 to i32
  %23 = sext i32 %22 to i64
  %24 = call i64 @llvm.expect.i64(i64 %23, i64 1)
  %25 = icmp ne i64 %24, 0
  br i1 %25, label %26, label %181

26:                                               ; preds = %18
  %27 = load i64, ptr %3, align 8, !tbaa !3
  %28 = call ptr @H5O_get_loc(i64 noundef %27)
  store ptr %28, ptr %6, align 8, !tbaa !16
  %29 = icmp eq ptr null, %28
  br i1 %29, label %30, label %49

30:                                               ; preds = %26
  br label %31

31:                                               ; preds = %30
  br label %32

32:                                               ; preds = %31
  br label %33

33:                                               ; preds = %32
  %34 = load i64, ptr @H5E_SYM_g, align 8, !tbaa !3
  %35 = load i64, ptr @H5E_NOTFOUND_g, align 8, !tbaa !3
  %36 = call i32 (ptr, ptr, i32, i64, i64, ptr, ...) @H5E_printf_stack(ptr noundef @.str, ptr noundef @__func__.H5O__check_msg_marked_test, i32 noundef 474, i64 noundef %34, i64 noundef %35, ptr noundef @.str.1)
  br label %37

37:                                               ; preds = %33
  br label %38

38:                                               ; preds = %37
  store i8 1, ptr %10, align 1, !tbaa !10
  %39 = load i8, ptr %10, align 1, !tbaa !10, !range !14, !noundef !15
  %40 = trunc i8 %39 to i1
  %41 = zext i1 %40 to i8
  store i8 %41, ptr %10, align 1, !tbaa !10
  br label %42

42:                                               ; preds = %38
  br label %43

43:                                               ; preds = %42
  br label %44

44:                                               ; preds = %43
  store i32 -1, ptr %9, align 4, !tbaa !12
  br label %156

45:                                               ; No predecessors!
  br label %46

46:                                               ; preds = %45
  br label %47

47:                                               ; preds = %46
  br label %48

48:                                               ; preds = %47
  br label %49

49:                                               ; preds = %48, %26
  %50 = load ptr, ptr %6, align 8, !tbaa !16
  %51 = call ptr @H5O_protect(ptr noundef %50, i32 noundef 128, i1 noundef zeroext false)
  store ptr %51, ptr %5, align 8, !tbaa !7
  %52 = icmp eq ptr null, %51
  br i1 %52, label %53, label %72

53:                                               ; preds = %49
  br label %54

54:                                               ; preds = %53
  br label %55

55:                                               ; preds = %54
  br label %56

56:                                               ; preds = %55
  %57 = load i64, ptr @H5E_OHDR_g, align 8, !tbaa !3
  %58 = load i64, ptr @H5E_CANTPROTECT_g, align 8, !tbaa !3
  %59 = call i32 (ptr, ptr, i32, i64, i64, ptr, ...) @H5E_printf_stack(ptr noundef @.str, ptr noundef @__func__.H5O__check_msg_marked_test, i32 noundef 478, i64 noundef %57, i64 noundef %58, ptr noundef @.str.3)
  br label %60

60:                                               ; preds = %56
  br label %61

61:                                               ; preds = %60
  store i8 1, ptr %10, align 1, !tbaa !10
  %62 = load i8, ptr %10, align 1, !tbaa !10, !range !14, !noundef !15
  %63 = trunc i8 %62 to i1
  %64 = zext i1 %63 to i8
  store i8 %64, ptr %10, align 1, !tbaa !10
  br label %65

65:                                               ; preds = %61
  br label %66

66:                                               ; preds = %65
  br label %67

67:                                               ; preds = %66
  store i32 -1, ptr %9, align 4, !tbaa !12
  br label %156

68:                                               ; No predecessors!
  br label %69

69:                                               ; preds = %68
  br label %70

70:                                               ; preds = %69
  br label %71

71:                                               ; preds = %70
  br label %72

72:                                               ; preds = %71, %49
  store i32 0, ptr %8, align 4, !tbaa !12
  %73 = load ptr, ptr %5, align 8, !tbaa !7
  %74 = getelementptr inbounds nuw %struct.H5O_t, ptr %73, i32 0, i32 17
  %75 = load ptr, ptr %74, align 8, !tbaa !41
  %76 = getelementptr inbounds %struct.H5O_mesg_t, ptr %75, i64 0
  store ptr %76, ptr %7, align 8, !tbaa !42
  br label %77

77:                                               ; preds = %124, %72
  %78 = load i32, ptr %8, align 4, !tbaa !12
  %79 = zext i32 %78 to i64
  %80 = load ptr, ptr %5, align 8, !tbaa !7
  %81 = getelementptr inbounds nuw %struct.H5O_t, ptr %80, i32 0, i32 15
  %82 = load i64, ptr %81, align 8, !tbaa !43
  %83 = icmp ult i64 %79, %82
  br i1 %83, label %84, label %129

84:                                               ; preds = %77
  %85 = load ptr, ptr %7, align 8, !tbaa !42
  %86 = getelementptr inbounds nuw %struct.H5O_mesg_t, ptr %85, i32 0, i32 0
  %87 = load ptr, ptr %86, align 8, !tbaa !44
  %88 = getelementptr inbounds nuw %struct.H5O_msg_class_t, ptr %87, i32 0, i32 0
  %89 = load i32, ptr %88, align 8, !tbaa !48
  %90 = icmp eq i32 %89, 25
  br i1 %90, label %91, label %123

91:                                               ; preds = %84
  %92 = load ptr, ptr %7, align 8, !tbaa !42
  %93 = getelementptr inbounds nuw %struct.H5O_mesg_t, ptr %92, i32 0, i32 2
  %94 = load i8, ptr %93, align 1, !tbaa !50
  %95 = zext i8 %94 to i32
  %96 = and i32 %95, 32
  %97 = icmp ugt i32 %96, 0
  %98 = zext i1 %97 to i32
  %99 = load i8, ptr %4, align 1, !tbaa !10, !range !14, !noundef !15
  %100 = trunc i8 %99 to i1
  %101 = zext i1 %100 to i32
  %102 = icmp ne i32 %98, %101
  br i1 %102, label %103, label %122

103:                                              ; preds = %91
  br label %104

104:                                              ; preds = %103
  br label %105

105:                                              ; preds = %104
  br label %106

106:                                              ; preds = %105
  %107 = load i64, ptr @H5E_OHDR_g, align 8, !tbaa !3
  %108 = load i64, ptr @H5E_BADVALUE_g, align 8, !tbaa !3
  %109 = call i32 (ptr, ptr, i32, i64, i64, ptr, ...) @H5E_printf_stack(ptr noundef @.str, ptr noundef @__func__.H5O__check_msg_marked_test, i32 noundef 486, i64 noundef %107, i64 noundef %108, ptr noundef @.str.13)
  br label %110

110:                                              ; preds = %106
  br label %111

111:                                              ; preds = %110
  store i8 1, ptr %10, align 1, !tbaa !10
  %112 = load i8, ptr %10, align 1, !tbaa !10, !range !14, !noundef !15
  %113 = trunc i8 %112 to i1
  %114 = zext i1 %113 to i8
  store i8 %114, ptr %10, align 1, !tbaa !10
  br label %115

115:                                              ; preds = %111
  br label %116

116:                                              ; preds = %115
  br label %117

117:                                              ; preds = %116
  store i32 -1, ptr %9, align 4, !tbaa !12
  br label %156

118:                                              ; No predecessors!
  br label %119

119:                                              ; preds = %118
  br label %120

120:                                              ; preds = %119
  br label %121

121:                                              ; preds = %120
  br label %122

122:                                              ; preds = %121, %91
  br label %129

123:                                              ; preds = %84
  br label %124

124:                                              ; preds = %123
  %125 = load i32, ptr %8, align 4, !tbaa !12
  %126 = add i32 %125, 1
  store i32 %126, ptr %8, align 4, !tbaa !12
  %127 = load ptr, ptr %7, align 8, !tbaa !42
  %128 = getelementptr inbounds nuw %struct.H5O_mesg_t, ptr %127, i32 1
  store ptr %128, ptr %7, align 8, !tbaa !42
  br label %77, !llvm.loop !51

129:                                              ; preds = %122, %77
  %130 = load i32, ptr %8, align 4, !tbaa !12
  %131 = zext i32 %130 to i64
  %132 = load ptr, ptr %5, align 8, !tbaa !7
  %133 = getelementptr inbounds nuw %struct.H5O_t, ptr %132, i32 0, i32 15
  %134 = load i64, ptr %133, align 8, !tbaa !43
  %135 = icmp eq i64 %131, %134
  br i1 %135, label %136, label %155

136:                                              ; preds = %129
  br label %137

137:                                              ; preds = %136
  br label %138

138:                                              ; preds = %137
  br label %139

139:                                              ; preds = %138
  %140 = load i64, ptr @H5E_OHDR_g, align 8, !tbaa !3
  %141 = load i64, ptr @H5E_NOTFOUND_g, align 8, !tbaa !3
  %142 = call i32 (ptr, ptr, i32, i64, i64, ptr, ...) @H5E_printf_stack(ptr noundef @.str, ptr noundef @__func__.H5O__check_msg_marked_test, i32 noundef 494, i64 noundef %140, i64 noundef %141, ptr noundef @.str.14)
  br label %143

143:                                              ; preds = %139
  br label %144

144:                                              ; preds = %143
  store i8 1, ptr %10, align 1, !tbaa !10
  %145 = load i8, ptr %10, align 1, !tbaa !10, !range !14, !noundef !15
  %146 = trunc i8 %145 to i1
  %147 = zext i1 %146 to i8
  store i8 %147, ptr %10, align 1, !tbaa !10
  br label %148

148:                                              ; preds = %144
  br label %149

149:                                              ; preds = %148
  br label %150

150:                                              ; preds = %149
  store i32 -1, ptr %9, align 4, !tbaa !12
  br label %156

151:                                              ; No predecessors!
  br label %152

152:                                              ; preds = %151
  br label %153

153:                                              ; preds = %152
  br label %154

154:                                              ; preds = %153
  br label %155

155:                                              ; preds = %154, %129
  br label %156

156:                                              ; preds = %155, %150, %117, %67, %44
  %157 = load ptr, ptr %5, align 8, !tbaa !7
  %158 = icmp ne ptr %157, null
  br i1 %158, label %159, label %180

159:                                              ; preds = %156
  %160 = load ptr, ptr %6, align 8, !tbaa !16
  %161 = load ptr, ptr %5, align 8, !tbaa !7
  %162 = call i32 @H5O_unprotect(ptr noundef %160, ptr noundef %161, i32 noundef 0)
  %163 = icmp slt i32 %162, 0
  br i1 %163, label %164, label %180

164:                                              ; preds = %159
  br label %165

165:                                              ; preds = %164
  br label %166

166:                                              ; preds = %165
  br label %167

167:                                              ; preds = %166
  %168 = load i64, ptr @H5E_OHDR_g, align 8, !tbaa !3
  %169 = load i64, ptr @H5E_CANTUNPROTECT_g, align 8, !tbaa !3
  %170 = call i32 (ptr, ptr, i32, i64, i64, ptr, ...) @H5E_printf_stack(ptr noundef @.str, ptr noundef @__func__.H5O__check_msg_marked_test, i32 noundef 498, i64 noundef %168, i64 noundef %169, ptr noundef @.str.5)
  br label %171

171:                                              ; preds = %167
  br label %172

172:                                              ; preds = %171
  store i8 1, ptr %10, align 1, !tbaa !10
  %173 = load i8, ptr %10, align 1, !tbaa !10, !range !14, !noundef !15
  %174 = trunc i8 %173 to i1
  %175 = zext i1 %174 to i8
  store i8 %175, ptr %10, align 1, !tbaa !10
  br label %176

176:                                              ; preds = %172
  br label %177

177:                                              ; preds = %176
  store i32 -1, ptr %9, align 4, !tbaa !12
  br label %178

178:                                              ; preds = %177
  br label %179

179:                                              ; preds = %178
  br label %180

180:                                              ; preds = %179, %159, %156
  br label %181

181:                                              ; preds = %180, %18
  %182 = load i32, ptr %9, align 4, !tbaa !12
  call void @llvm.lifetime.end.p0(i64 1, ptr %10) #5
  call void @llvm.lifetime.end.p0(i64 4, ptr %9) #5
  call void @llvm.lifetime.end.p0(i64 4, ptr %8) #5
  call void @llvm.lifetime.end.p0(i64 8, ptr %7) #5
  call void @llvm.lifetime.end.p0(i64 8, ptr %6) #5
  call void @llvm.lifetime.end.p0(i64 8, ptr %5) #5
  ret i32 %182
}