; Function Attrs: nounwind uwtable
define range(i32 -1, 1) i32 @H5O__check_msg_marked_test(i64 noundef %0, i1 noundef zeroext %1) local_unnamed_addr #0 {
  %3 = load i8, ptr @H5O_init_g, align 1, !tbaa !3, !range !7, !noundef !8
  %4 = trunc nuw i8 %3 to i1
  %5 = load i8, ptr @H5_libterm_g, align 1, !range !7
  %6 = trunc nuw i8 %5 to i1
  %7 = xor i1 %6, true
  %8 = select i1 %4, i1 true, i1 %7
  br i1 %8, label %9, label %58, !prof !9

9:                                                ; preds = %2
  %10 = tail call ptr @H5O_get_loc(i64 noundef %0) #4
  %11 = icmp eq ptr %10, null
  br i1 %11, label %12, label %16

12:                                               ; preds = %9
  %13 = load i64, ptr @H5E_SYM_g, align 8, !tbaa !10
  %14 = load i64, ptr @H5E_NOTFOUND_g, align 8, !tbaa !10
  %15 = tail call i32 (ptr, ptr, i32, i64, i64, ptr, ...) @H5E_printf_stack(ptr noundef nonnull @.str, ptr noundef nonnull @__func__.H5O__check_msg_marked_test, i32 noundef 474, i64 noundef %13, i64 noundef %14, ptr noundef nonnull @.str.1) #4
  br label %58

16:                                               ; preds = %9
  %17 = tail call ptr @H5O_protect(ptr noundef nonnull %10, i32 noundef 128, i1 noundef zeroext false) #4
  %18 = icmp eq ptr %17, null
  br i1 %18, label %19, label %23

19:                                               ; preds = %16
  %20 = load i64, ptr @H5E_OHDR_g, align 8, !tbaa !10
  %21 = load i64, ptr @H5E_CANTPROTECT_g, align 8, !tbaa !10
  %22 = tail call i32 (ptr, ptr, i32, i64, i64, ptr, ...) @H5E_printf_stack(ptr noundef nonnull @.str, ptr noundef nonnull @__func__.H5O__check_msg_marked_test, i32 noundef 478, i64 noundef %20, i64 noundef %21, ptr noundef nonnull @.str.3) #4
  br label %58

23:                                               ; preds = %16
  %24 = getelementptr inbounds nuw i8, ptr %17, i64 336
  %25 = load i64, ptr %24, align 8, !tbaa !34
  %.not39 = icmp eq i64 %25, 0
  br i1 %.not39, label %.loopexit.thread, label %.lr.ph.preheader

.lr.ph.preheader:                                 ; preds = %23
  %26 = getelementptr inbounds nuw i8, ptr %17, i64 352
  %27 = load ptr, ptr %26, align 8, !tbaa !35
  %28 = load ptr, ptr %27, align 8, !tbaa !36
  %29 = load i32, ptr %28, align 8, !tbaa !40
  %30 = icmp eq i32 %29, 25
  br i1 %30, label %.lr.ph._crit_edge, label %.lr.ph51

.lr.ph:                                           ; preds = %.lr.ph51
  %31 = getelementptr inbounds nuw i8, ptr %.0213650, i64 48
  %32 = load ptr, ptr %31, align 8, !tbaa !36
  %33 = load i32, ptr %32, align 8, !tbaa !40
  %34 = icmp eq i32 %33, 25
  br i1 %34, label %.lr.ph._crit_edge, label %.lr.ph51, !llvm.loop !42

.lr.ph._crit_edge:                                ; preds = %.lr.ph, %.lr.ph.preheader
  %.lcssa = phi i64 [ 0, %.lr.ph.preheader ], [ %44, %.lr.ph ]
  %.02136.lcssa = phi ptr [ %27, %.lr.ph.preheader ], [ %31, %.lr.ph ]
  %35 = getelementptr inbounds nuw i8, ptr %.02136.lcssa, i64 9
  %36 = load i8, ptr %35, align 1, !tbaa !44
  %37 = and i8 %36, 32
  %38 = icmp eq i8 %37, 0
  %.not = xor i1 %1, %38
  br i1 %.not, label %.loopexit, label %39

39:                                               ; preds = %.lr.ph._crit_edge
  %40 = load i64, ptr @H5E_OHDR_g, align 8, !tbaa !10
  %41 = load i64, ptr @H5E_BADVALUE_g, align 8, !tbaa !10
  %42 = tail call i32 (ptr, ptr, i32, i64, i64, ptr, ...) @H5E_printf_stack(ptr noundef nonnull @.str, ptr noundef nonnull @__func__.H5O__check_msg_marked_test, i32 noundef 486, i64 noundef %40, i64 noundef %41, ptr noundef nonnull @.str.13) #4
  br label %51

.lr.ph51:                                         ; preds = %.lr.ph.preheader, %.lr.ph
  %.0213650 = phi ptr [ %31, %.lr.ph ], [ %27, %.lr.ph.preheader ]
  %.0203749 = phi i32 [ %43, %.lr.ph ], [ 0, %.lr.ph.preheader ]
  %43 = add i32 %.0203749, 1
  %44 = zext i32 %43 to i64
  %45 = icmp ugt i64 %25, %44
  br i1 %45, label %.lr.ph, label %.loopexit, !llvm.loop !42

.loopexit:                                        ; preds = %.lr.ph51, %.lr.ph._crit_edge
  %46 = phi i64 [ %.lcssa, %.lr.ph._crit_edge ], [ %44, %.lr.ph51 ]
  %47 = icmp eq i64 %25, %46
  br i1 %47, label %.loopexit.thread, label %51

.loopexit.thread:                                 ; preds = %23, %.loopexit
  %48 = load i64, ptr @H5E_OHDR_g, align 8, !tbaa !10
  %49 = load i64, ptr @H5E_NOTFOUND_g, align 8, !tbaa !10
  %50 = tail call i32 (ptr, ptr, i32, i64, i64, ptr, ...) @H5E_printf_stack(ptr noundef nonnull @.str, ptr noundef nonnull @__func__.H5O__check_msg_marked_test, i32 noundef 494, i64 noundef %48, i64 noundef %49, ptr noundef nonnull @.str.14) #4
  br label %51

51:                                               ; preds = %39, %.loopexit.thread, %.loopexit
  %.1.ph = phi i32 [ 0, %.loopexit ], [ -1, %.loopexit.thread ], [ -1, %39 ]
  %52 = tail call i32 @H5O_unprotect(ptr noundef nonnull %10, ptr noundef nonnull %17, i32 noundef 0) #4
  %53 = icmp slt i32 %52, 0
  br i1 %53, label %54, label %58

54:                                               ; preds = %51
  %55 = load i64, ptr @H5E_OHDR_g, align 8, !tbaa !10
  %56 = load i64, ptr @H5E_CANTUNPROTECT_g, align 8, !tbaa !10
  %57 = tail call i32 (ptr, ptr, i32, i64, i64, ptr, ...) @H5E_printf_stack(ptr noundef nonnull @.str, ptr noundef nonnull @__func__.H5O__check_msg_marked_test, i32 noundef 498, i64 noundef %55, i64 noundef %56, ptr noundef nonnull @.str.5) #4
  br label %58

58:                                               ; preds = %12, %19, %51, %54, %2
  %.0 = phi i32 [ -1, %54 ], [ %.1.ph, %51 ], [ 0, %2 ], [ -1, %12 ], [ -1, %19 ]
  ret i32 %.0
}